ccopy_reg
_reconstructor
p0
(c__main__
Cache
p1
c__builtin__
object
p2
Ntp3
Rp4
(dp5
S'status'
p6
S'published'
p7
sS'title'
p8
S'\xe6\xb8\xac\xe8\xa9\xa6\xe6\x99\x82\xe5\xa6\x82\xe4\xbd\x95\xe9\x81\xbf\xe9\x96\x8b Android \xe7\x9a\x84\xe6\xbb\x91\xe5\x8b\x95\xe8\xa7\xa3\xe9\x8e\x96\xef\xbc\x88Keyguard\xef\xbc\x89'
p9
sS'url'
p10
S'http://imsardine.wordpress.com/2012/05/29/android-test-disable-keyguard/'
p11
sS'checksum'
p12
S'f88c8fd7af78a47024c37bf518f3c349'
p13
sS'created_at'
p14
I1338277241
sS'doctype'
p15
S'article'
p16
sS'updated_at'
p17
I1338193609
sS'post_type'
p18
S'post'
p19
sS'media'
p20
(dp21
S'AndroidTestDisableKeyguard/htc_keyguard.png'
p22
g0
(c__main__
Media
p23
g2
Ntp24
Rp25
(dp26
S'url'
p27
S'http://imsardine.files.wordpress.com/2012/05/htc_keyguard.png'
p28
sS'checksum'
p29
S'5cc833550786343ec57cadbd997f6203'
p30
sS'filename'
p31
S'/storage/data/Dropbox/KM/Android/AndroidTestDisableKeyguard/htc_keyguard.png'
p32
sbsS'AndroidTestDisableKeyguard/emulator_keyguard.png'
p33
g0
(g23
g2
Ntp34
Rp35
(dp36
g27
S'http://imsardine.files.wordpress.com/2012/05/emulator_keyguard.png'
p37
sg29
S'a90dd07477400672538e9d9b04860b97'
p38
sg31
S'/storage/data/Dropbox/KM/Android/AndroidTestDisableKeyguard/emulator_keyguard.png'
p39
sbsS'AndroidTestDisableKeyguard/pattern_lock.png'
p40
g0
(g23
g2
Ntp41
Rp42
(dp43
g27
S'http://imsardine.files.wordpress.com/2012/05/pattern_lock.png'
p44
sg29
S'a411c425feb997fce82d53d6954f25e9'
p45
sg31
S'/storage/data/Dropbox/KM/Android/AndroidTestDisableKeyguard/pattern_lock.png'
p46
sbssS'id'
p47
I476
sS'categories'
p48
(lp49
S'android'
p50
aS'test'
p51
asb.